target datalayout = "e-m:e-p270:32:32-p271:32:32-p272:64:64-i64:64-i128:128-f80:128-n8:16:32:64-S128"
target triple = "x86_64-pc-linux-gnu"

%struct.LWLock = type { i16, %struct.pg_atomic_uint32, %struct.proclist_head }
%struct.pg_atomic_uint32 = type { i32 }
%struct.proclist_head = type { i32, i32 }
%struct.ReplicationState = type { i16, i64, i64, i32, %struct.ConditionVariable, %struct.LWLock }
%struct.ConditionVariable = type { i8, %struct.proclist_head }

@session_replication_state = internal global ptr null, align 8

; Function Attrs: nounwind uwtable
define dso_local void @replorigin_session_advance(i64 noundef %0, i64 noundef %1) #0 {
  %3 = alloca i64, align 8
  %4 = alloca i64, align 8
  store i64 %0, ptr %3, align 8
  store i64 %1, ptr %4, align 8
  %5 = load ptr, ptr @session_replication_state, align 8
  %6 = getelementptr inbounds nuw %struct.ReplicationState, ptr %5, i32 0, i32 5
  %7 = call zeroext i1 @LWLockAcquire(ptr noundef %6, i32 noundef 0)
  %8 = load ptr, ptr @session_replication_state, align 8
  %9 = getelementptr inbounds nuw %struct.ReplicationState, ptr %8, i32 0, i32 2
  %10 = load i64, ptr %9, align 8
  %11 = load i64, ptr %4, align 8
  %12 = icmp ult i64 %10, %11
  br i1 %12, label %13, label %17

13:                                               ; preds = %2
  %14 = load i64, ptr %4, align 8
  %15 = load ptr, ptr @session_replication_state, align 8
  %16 = getelementptr inbounds nuw %struct.ReplicationState, ptr %15, i32 0, i32 2
  store i64 %14, ptr %16, align 8
  br label %17

17:                                               ; preds = %13, %2
  %18 = load ptr, ptr @session_replication_state, align 8
  %19 = getelementptr inbounds nuw %struct.ReplicationState, ptr %18, i32 0, i32 1
  %20 = load i64, ptr %19, align 8
  %21 = load i64, ptr %3, align 8
  %22 = icmp ult i64 %20, %21
  br i1 %22, label %23, label %27

23:                                               ; preds = %17
  %24 = load i64, ptr %3, align 8
  %25 = load ptr, ptr @session_replication_state, align 8
  %26 = getelementptr inbounds nuw %struct.ReplicationState, ptr %25, i32 0, i32 1
  store i64 %24, ptr %26, align 8
  br label %27

27:                                               ; preds = %23, %17
  %28 = load ptr, ptr @session_replication_state, align 8
  %29 = getelementptr inbounds nuw %struct.ReplicationState, ptr %28, i32 0, i32 5
  call void @LWLockRelease(ptr noundef %29)
  ret void
}