; Function Attrs: nounwind uwtable
define dso_local void @replorigin_session_advance(i64 noundef %0, i64 noundef %1) local_unnamed_addr #0 {
  %3 = load ptr, ptr @session_replication_state, align 8
  %4 = getelementptr inbounds nuw i8, ptr %3, i64 40
  %5 = tail call zeroext i1 @LWLockAcquire(ptr noundef nonnull %4, i32 noundef 0) #10
  %6 = load ptr, ptr @session_replication_state, align 8
  %7 = getelementptr inbounds nuw i8, ptr %6, i64 16
  %8 = load i64, ptr %7, align 8
  %9 = icmp ult i64 %8, %1
  br i1 %9, label %10, label %11

10:                                               ; preds = %2
  store i64 %1, ptr %7, align 8
  br label %11

11:                                               ; preds = %10, %2
  %12 = getelementptr inbounds nuw i8, ptr %6, i64 8
  %13 = load i64, ptr %12, align 8
  %14 = icmp ult i64 %13, %0
  br i1 %14, label %15, label %16

15:                                               ; preds = %11
  store i64 %0, ptr %12, align 8
  br label %16

16:                                               ; preds = %15, %11
  %17 = getelementptr inbounds nuw i8, ptr %6, i64 40
  tail call void @LWLockRelease(ptr noundef nonnull %17) #10
  ret void
}